; Function Attrs: nounwind uwtable
define dso_local i32 @uv_try_write2(ptr noundef readonly captures(none) %0, ptr noundef %1, i32 noundef %2, ptr noundef %3) local_unnamed_addr #0 {
  %5 = getelementptr inbounds nuw i8, ptr %0, i64 120
  %6 = load ptr, ptr %5, align 8
  %.not = icmp eq ptr %6, null
  br i1 %.not, label %7, label %uv__check_before_write.exit.thread

7:                                                ; preds = %4
  %8 = getelementptr inbounds nuw i8, ptr %0, i64 96
  %9 = load i64, ptr %8, align 8
  %.not11 = icmp eq i64 %9, 0
  br i1 %.not11, label %10, label %uv__check_before_write.exit.thread

10:                                               ; preds = %7
  %11 = getelementptr inbounds nuw i8, ptr %0, i64 184
  %12 = load i32, ptr %11, align 8
  %13 = icmp slt i32 %12, 0
  br i1 %13, label %uv__check_before_write.exit.thread, label %14

14:                                               ; preds = %10
  %15 = getelementptr inbounds nuw i8, ptr %0, i64 88
  %16 = load i32, ptr %15, align 8
  %17 = and i32 %16, 32768
  %.not.i = icmp eq i32 %17, 0
  br i1 %.not.i, label %uv__check_before_write.exit.thread, label %uv__check_before_write.exit

uv__check_before_write.exit:                      ; preds = %14
  %18 = tail call fastcc i32 @uv__try_write(ptr noundef nonnull %0, ptr noundef %1, i32 noundef %2, ptr noundef %3)
  br label %uv__check_before_write.exit.thread

uv__check_before_write.exit.thread:               ; preds = %14, %10, %4, %7, %uv__check_before_write.exit
  %.0 = phi i32 [ %18, %uv__check_before_write.exit ], [ -11, %7 ], [ -11, %4 ], [ -32, %14 ], [ -9, %10 ]
  ret i32 %.0
}